; Function Attrs: mustprogress uwtable
define void @_ZN32pxrInternal_v0_24__pxrReserved__16TfPatternMatcherC2ERKNSt7__cxx1112basic_stringIcSt11char_traitsIcESaIcEEEbb(ptr noundef nonnull align 8 dereferenceable(104) %0, ptr noundef nonnull align 8 dereferenceable(32) %1, i1 noundef zeroext %2, i1 noundef zeroext %3) unnamed_addr #2 align 2 {
  %5 = zext i1 %2 to i8
  %6 = zext i1 %3 to i8
  store i8 %5, ptr %0, align 8
  %7 = getelementptr inbounds nuw i8, ptr %0, i64 1
  store i8 %6, ptr %7, align 1
  %8 = getelementptr inbounds nuw i8, ptr %0, i64 8
  tail call void @_ZNSt7__cxx1112basic_stringIcSt11char_traitsIcESaIcEEC1ERKS4_(ptr noundef nonnull align 8 dereferenceable(32) %8, ptr noundef nonnull align 8 dereferenceable(32) %1)
  %9 = getelementptr inbounds nuw i8, ptr %0, i64 40
  store i8 1, ptr %9, align 8
  %10 = getelementptr inbounds nuw i8, ptr %0, i64 48
  store i32 0, ptr %10, align 8
  %11 = getelementptr inbounds i8, ptr %0, i64 56
  tail call void @_ZNSt7__cxx1112basic_stringIcSt11char_traitsIcESaIcEEC1Ev(ptr noundef nonnull align 8 dereferenceable(32) %11) #7
  %12 = getelementptr inbounds i8, ptr %0, i64 88
  tail call void @llvm.memset.p0.i64(ptr noundef nonnull align 8 dereferenceable(16) %12, i8 0, i64 16, i1 false)
  ret void
}